; ModuleID = '63/690.c'
source_filename = "63/690.c"
target datalayout = "e-m:e-p270:32:32-p271:32:32-p272:64:64-i64:64-f80:128-n8:16:32:64-S128"
target triple = "x86_64-pc-linux-gnu"

@.str = private unnamed_addr constant [5 x i8] c"%d%d\00", align 1
@.str.1 = private unnamed_addr constant [3 x i8] c"%d\00", align 1
@.str.2 = private unnamed_addr constant [4 x i8] c" %d\00", align 1
@.str.3 = private unnamed_addr constant [2 x i8] c"\0A\00", align 1

; Function Attrs: noinline nounwind uwtable
define dso_local void @main() #0 {
  %1 = alloca [100 x [100 x i32]], align 16
  %2 = alloca [100 x [100 x i32]], align 16
  %3 = alloca [100 x [100 x i32]], align 16
  %4 = alloca i32, align 4
  %5 = alloca i32, align 4
  %6 = alloca i32, align 4
  %7 = alloca i32, align 4
  %8 = alloca i32, align 4
  %9 = alloca i32, align 4
  %10 = alloca i32, align 4
  %11 = alloca i32, align 4
  %12 = alloca i32, align 4
  store i32 1, i32* %8, align 4
  br label %13

13:                                               ; preds = %72, %0
  %14 = load i32, i32* %8, align 4
  %15 = icmp sle i32 %14, 2
  br i1 %15, label %16, label %75

16:                                               ; preds = %13
  %17 = call i32 (i8*, ...) @__isoc99_scanf(i8* getelementptr inbounds ([5 x i8], [5 x i8]* @.str, i64 0, i64 0), i32* %4, i32* %5)
  %18 = load i32, i32* %8, align 4
  %19 = icmp eq i32 %18, 1
  br i1 %19, label %20, label %23

20:                                               ; preds = %16
  %21 = load i32, i32* %4, align 4
  store i32 %21, i32* %9, align 4
  %22 = load i32, i32* %5, align 4
  store i32 %22, i32* %10, align 4
  br label %23

23:                                               ; preds = %20, %16
  %24 = load i32, i32* %8, align 4
  %25 = icmp eq i32 %24, 2
  br i1 %25, label %26, label %29

26:                                               ; preds = %23
  %27 = load i32, i32* %4, align 4
  store i32 %27, i32* %11, align 4
  %28 = load i32, i32* %5, align 4
  store i32 %28, i32* %12, align 4
  br label %29

29:                                               ; preds = %26, %23
  store i32 0, i32* %6, align 4
  br label %30

30:                                               ; preds = %68, %29
  %31 = load i32, i32* %6, align 4
  %32 = load i32, i32* %4, align 4
  %33 = sub nsw i32 %32, 1
  %34 = icmp sle i32 %31, %33
  br i1 %34, label %35, label %71

35:                                               ; preds = %30
  store i32 0, i32* %7, align 4
  br label %36

36:                                               ; preds = %64, %35
  %37 = load i32, i32* %7, align 4
  %38 = load i32, i32* %5, align 4
  %39 = sub nsw i32 %38, 1
  %40 = icmp sle i32 %37, %39
  br i1 %40, label %41, label %67

41:                                               ; preds = %36
  %42 = load i32, i32* %8, align 4
  %43 = icmp eq i32 %42, 1
  br i1 %43, label %44, label %52

44:                                               ; preds = %41
  %45 = load i32, i32* %6, align 4
  %46 = sext i32 %45 to i64
  %47 = getelementptr inbounds [100 x [100 x i32]], [100 x [100 x i32]]* %1, i64 0, i64 %46
  %48 = load i32, i32* %7, align 4
  %49 = sext i32 %48 to i64
  %50 = getelementptr inbounds [100 x i32], [100 x i32]* %47, i64 0, i64 %49
  %51 = call i32 (i8*, ...) @__isoc99_scanf(i8* getelementptr inbounds ([3 x i8], [3 x i8]* @.str.1, i64 0, i64 0), i32* %50)
  br label %52

52:                                               ; preds = %44, %41
  %53 = load i32, i32* %8, align 4
  %54 = icmp eq i32 %53, 2
  br i1 %54, label %55, label %63

55:                                               ; preds = %52
  %56 = load i32, i32* %6, align 4
  %57 = sext i32 %56 to i64
  %58 = getelementptr inbounds [100 x [100 x i32]], [100 x [100 x i32]]* %2, i64 0, i64 %57
  %59 = load i32, i32* %7, align 4
  %60 = sext i32 %59 to i64
  %61 = getelementptr inbounds [100 x i32], [100 x i32]* %58, i64 0, i64 %60
  %62 = call i32 (i8*, ...) @__isoc99_scanf(i8* getelementptr inbounds ([3 x i8], [3 x i8]* @.str.1, i64 0, i64 0), i32* %61)
  br label %63

63:                                               ; preds = %55, %52
  br label %64

64:                                               ; preds = %63
  %65 = load i32, i32* %7, align 4
  %66 = add nsw i32 %65, 1
  store i32 %66, i32* %7, align 4
  br label %36

67:                                               ; preds = %36
  br label %68

68:                                               ; preds = %67
  %69 = load i32, i32* %6, align 4
  %70 = add nsw i32 %69, 1
  store i32 %70, i32* %6, align 4
  br label %30

71:                                               ; preds = %30
  br label %72

72:                                               ; preds = %71
  %73 = load i32, i32* %8, align 4
  %74 = add nsw i32 %73, 1
  store i32 %74, i32* %8, align 4
  br label %13

75:                                               ; preds = %13
  store i32 0, i32* %6, align 4
  br label %76

76:                                               ; preds = %137, %75
  %77 = load i32, i32* %6, align 4
  %78 = load i32, i32* %9, align 4
  %79 = sub nsw i32 %78, 1
  %80 = icmp sle i32 %77, %79
  br i1 %80, label %81, label %140

81:                                               ; preds = %76
  store i32 0, i32* %7, align 4
  br label %82

82:                                               ; preds = %133, %81
  %83 = load i32, i32* %7, align 4
  %84 = load i32, i32* %12, align 4
  %85 = sub nsw i32 %84, 1
  %86 = icmp sle i32 %83, %85
  br i1 %86, label %87, label %136

87:                                               ; preds = %82
  %88 = load i32, i32* %6, align 4
  %89 = sext i32 %88 to i64
  %90 = getelementptr inbounds [100 x [100 x i32]], [100 x [100 x i32]]* %3, i64 0, i64 %89
  %91 = load i32, i32* %7, align 4
  %92 = sext i32 %91 to i64
  %93 = getelementptr inbounds [100 x i32], [100 x i32]* %90, i64 0, i64 %92
  store i32 0, i32* %93, align 4
  store i32 0, i32* %8, align 4
  br label %94

94:                                               ; preds = %129, %87
  %95 = load i32, i32* %8, align 4
  %96 = load i32, i32* %10, align 4
  %97 = sub nsw i32 %96, 1
  %98 = icmp sle i32 %95, %97
  br i1 %98, label %99, label %132

99:                                               ; preds = %94
  %100 = load i32, i32* %6, align 4
  %101 = sext i32 %100 to i64
  %102 = getelementptr inbounds [100 x [100 x i32]], [100 x [100 x i32]]* %3, i64 0, i64 %101
  %103 = load i32, i32* %7, align 4
  %104 = sext i32 %103 to i64
  %105 = getelementptr inbounds [100 x i32], [100 x i32]* %102, i64 0, i64 %104
  %106 = load i32, i32* %105, align 4
  %107 = load i32, i32* %6, align 4
  %108 = sext i32 %107 to i64
  %109 = getelementptr inbounds [100 x [100 x i32]], [100 x [100 x i32]]* %1, i64 0, i64 %108
  %110 = load i32, i32* %8, align 4
  %111 = sext i32 %110 to i64
  %112 = getelementptr inbounds [100 x i32], [100 x i32]* %109, i64 0, i64 %111
  %113 = load i32, i32* %112, align 4
  %114 = load i32, i32* %8, align 4
  %115 = sext i32 %114 to i64
  %116 = getelementptr inbounds [100 x [100 x i32]], [100 x [100 x i32]]* %2, i64 0, i64 %115
  %117 = load i32, i32* %7, align 4
  %118 = sext i32 %117 to i64
  %119 = getelementptr inbounds [100 x i32], [100 x i32]* %116, i64 0, i64 %118
  %120 = load i32, i32* %119, align 4
  %121 = mul nsw i32 %113, %120
  %122 = add nsw i32 %106, %121
  %123 = load i32, i32* %6, align 4
  %124 = sext i32 %123 to i64
  %125 = getelementptr inbounds [100 x [100 x i32]], [100 x [100 x i32]]* %3, i64 0, i64 %124
  %126 = load i32, i32* %7, align 4
  %127 = sext i32 %126 to i64
  %128 = getelementptr inbounds [100 x i32], [100 x i32]* %125, i64 0, i64 %127
  store i32 %122, i32* %128, align 4
  br label %129

129:                                              ; preds = %99
  %130 = load i32, i32* %8, align 4
  %131 = add nsw i32 %130, 1
  store i32 %131, i32* %8, align 4
  br label %94

132:                                              ; preds = %94
  br label %133

133:                                              ; preds = %132
  %134 = load i32, i32* %7, align 4
  %135 = add nsw i32 %134, 1
  store i32 %135, i32* %7, align 4
  br label %82

136:                                              ; preds = %82
  br label %137

137:                                              ; preds = %136
  %138 = load i32, i32* %6, align 4
  %139 = add nsw i32 %138, 1
  store i32 %139, i32* %6, align 4
  br label %76

140:                                              ; preds = %76
  store i32 0, i32* %6, align 4
  br label %141

141:                                              ; preds = %185, %140
  %142 = load i32, i32* %6, align 4
  %143 = load i32, i32* %9, align 4
  %144 = sub nsw i32 %143, 1
  %145 = icmp sle i32 %142, %144
  br i1 %145, label %146, label %188

146:                                              ; preds = %141
  store i32 0, i32* %7, align 4
  br label %147

147:                                              ; preds = %181, %146
  %148 = load i32, i32* %7, align 4
  %149 = load i32, i32* %12, align 4
  %150 = sub nsw i32 %149, 1
  %151 = icmp sle i32 %148, %150
  br i1 %151, label %152, label %184

152:                                              ; preds = %147
  %153 = load i32, i32* %7, align 4
  %154 = icmp eq i32 %153, 0
  br i1 %154, label %155, label %164

155:                                              ; preds = %152
  %156 = load i32, i32* %6, align 4
  %157 = sext i32 %156 to i64
  %158 = getelementptr inbounds [100 x [100 x i32]], [100 x [100 x i32]]* %3, i64 0, i64 %157
  %159 = load i32, i32* %7, align 4
  %160 = sext i32 %159 to i64
  %161 = getelementptr inbounds [100 x i32], [100 x i32]* %158, i64 0, i64 %160
  %162 = load i32, i32* %161, align 4
  %163 = call i32 (i8*, ...) @printf(i8* getelementptr inbounds ([3 x i8], [3 x i8]* @.str.1, i64 0, i64 0), i32 %162)
  br label %173

164:                                              ; preds = %152
  %165 = load i32, i32* %6, align 4
  %166 = sext i32 %165 to i64
  %167 = getelementptr inbounds [100 x [100 x i32]], [100 x [100 x i32]]* %3, i64 0, i64 %166
  %168 = load i32, i32* %7, align 4
  %169 = sext i32 %168 to i64
  %170 = getelementptr inbounds [100 x i32], [100 x i32]* %167, i64 0, i64 %169
  %171 = load i32, i32* %170, align 4
  %172 = call i32 (i8*, ...) @printf(i8* getelementptr inbounds ([4 x i8], [4 x i8]* @.str.2, i64 0, i64 0), i32 %171)
  br label %173

173:                                              ; preds = %164, %155
  %174 = load i32, i32* %7, align 4
  %175 = load i32, i32* %12, align 4
  %176 = sub nsw i32 %175, 1
  %177 = icmp eq i32 %174, %176
  br i1 %177, label %178, label %180

178:                                              ; preds = %173
  %179 = call i32 (i8*, ...) @printf(i8* getelementptr inbounds ([2 x i8], [2 x i8]* @.str.3, i64 0, i64 0))
  br label %180

180:                                              ; preds = %178, %173
  br label %181

181:                                              ; preds = %180
  %182 = load i32, i32* %7, align 4
  %183 = add nsw i32 %182, 1
  store i32 %183, i32* %7, align 4
  br label %147

184:                                              ; preds = %147
  br label %185

185:                                              ; preds = %184
  %186 = load i32, i32* %6, align 4
  %187 = add nsw i32 %186, 1
  store i32 %187, i32* %6, align 4
  br label %141

188:                                              ; preds = %141
  ret void
}

declare dso_local i32 @__isoc99_scanf(i8*, ...) #1

declare dso_local i32 @printf(i8*, ...) #1


!llvm.module.flags = !{!0}
!llvm.ident = !{!1}

!0 = !{i32 1, !"wchar_size", i32 4}
!1 = !{!"clang version 10.0.0-4ubuntu1 "}
